; Function Attrs: nounwind sspstrong uwtable
define internal noundef i64 @ossl_x509name_init_i(i64 noundef %0, i64 noundef %1, i32 %2, ptr readnone captures(none) %3, i64 %4) #0 {
  %6 = alloca [3 x i64], align 16
  %7 = tail call i64 @rb_ary_entry(i64 noundef %1, i64 noundef 0) #11
  %8 = tail call i64 @rb_ary_entry(i64 noundef %1, i64 noundef 1) #11
  call void @llvm.lifetime.start.p0(i64 24, ptr nonnull %6) #8
  %9 = icmp eq i64 %0, 0
  %10 = and i64 %0, 7
  %11 = icmp ne i64 %10, 0
  %12 = or i1 %9, %11
  br i1 %12, label %rbimpl_RB_TYPE_P_fastpath.exit.thread.i, label %rbimpl_RB_TYPE_P_fastpath.exit.i, !prof !32

rbimpl_RB_TYPE_P_fastpath.exit.i:                 ; preds = %5
  %13 = inttoptr i64 %0 to ptr
  %14 = load i64, ptr %13, align 8, !tbaa !22
  %15 = and i64 %14, 31
  %16 = icmp eq i64 %15, 7
  br i1 %16, label %Check_Type.exit, label %rbimpl_RB_TYPE_P_fastpath.exit.thread.i, !prof !50

rbimpl_RB_TYPE_P_fastpath.exit.thread.i:          ; preds = %rbimpl_RB_TYPE_P_fastpath.exit.i, %5
  tail call void @rb_unexpected_type(i64 noundef %0, i32 noundef 7) #10
  unreachable

Check_Type.exit:                                  ; preds = %rbimpl_RB_TYPE_P_fastpath.exit.i
  %17 = tail call i64 @rb_ary_entry(i64 noundef %0, i64 noundef 0) #11
  store i64 %17, ptr %6, align 16, !tbaa !6
  %18 = tail call i64 @rb_ary_entry(i64 noundef %0, i64 noundef 1) #11
  %19 = getelementptr inbounds nuw i8, ptr %6, i64 8
  store i64 %18, ptr %19, align 8, !tbaa !6
  %20 = tail call i64 @rb_ary_entry(i64 noundef %0, i64 noundef 2) #11
  %21 = getelementptr inbounds nuw i8, ptr %6, i64 16
  store i64 %20, ptr %21, align 16, !tbaa !6
  %22 = icmp eq i64 %20, 4
  br i1 %22, label %23, label %.thread

23:                                               ; preds = %Check_Type.exit
  %24 = load i64, ptr @id_aref, align 8, !tbaa !6
  %25 = tail call i64 (i64, i64, i32, ...) @rb_funcall(i64 noundef %8, i64 noundef %24, i32 noundef 1, i64 noundef %17) #8
  store i64 %25, ptr %21, align 16, !tbaa !6
  %26 = icmp eq i64 %25, 4
  br i1 %26, label %27, label %.thread

27:                                               ; preds = %23
  %28 = load i64, ptr @cX509Name, align 8, !tbaa !6
  %.pr.i = load i64, ptr @ossl_x509name_init_i.rbimpl_id, align 8, !tbaa !6
  %.not4.i = icmp eq i64 %.pr.i, 0
  br i1 %.not4.i, label %.lr.ph.i, label %rbimpl_intern_const.exit

.lr.ph.i:                                         ; preds = %27, %.lr.ph.i
  %29 = tail call i64 @rb_intern2(ptr noundef nonnull @.str.17, i64 noundef 19) #8
  store i64 %29, ptr @ossl_x509name_init_i.rbimpl_id, align 8, !tbaa !6
  %.not.i = icmp eq i64 %29, 0
  br i1 %.not.i, label %.lr.ph.i, label %rbimpl_intern_const.exit, !llvm.loop !21

rbimpl_intern_const.exit:                         ; preds = %.lr.ph.i, %27
  %.lcssa.i = phi i64 [ %.pr.i, %27 ], [ %29, %.lr.ph.i ]
  %30 = tail call i64 @rb_const_get(i64 noundef %28, i64 noundef %.lcssa.i) #8
  store i64 %30, ptr %21, align 16, !tbaa !6
  br label %.thread

.thread:                                          ; preds = %Check_Type.exit, %rbimpl_intern_const.exit, %23
  %31 = call i64 @ossl_x509name_add_entry(i32 noundef 3, ptr noundef nonnull %6, i64 noundef %7)
  call void @llvm.lifetime.end.p0(i64 24, ptr nonnull %6) #8
  ret i64 4
}